; Function Attrs: mustprogress uwtable
define hidden noundef nonnull align 8 dereferenceable(8) ptr @_ZN3sat8aig_cutsclEv(ptr noundef nonnull align 8 dereferenceable(480) %this) local_unnamed_addr #3 align 2 personality ptr @__gxx_personality_v0 {
entry:
  %node_ids = alloca %class.svector.2, align 8
  %m_full = getelementptr inbounds i8, ptr %this, i64 16
  %0 = load i8, ptr %m_full, align 8
  %1 = and i8 %0, 1
  %tobool.not = icmp eq i8 %1, 0
  br i1 %tobool.not, label %if.end, label %if.then

if.then:                                          ; preds = %entry
  tail call void @_ZN3sat8aig_cuts11flush_rootsEv(ptr noundef nonnull align 8 dereferenceable(480) %this)
  br label %if.end

if.end:                                           ; preds = %if.then, %entry
  tail call void @llvm.experimental.noalias.scope.decl(metadata !6)
  store ptr null, ptr %node_ids, align 8, !alias.scope !6
  %m_aig.i = getelementptr inbounds i8, ptr %this, i64 24
  %2 = load ptr, ptr %m_aig.i, align 8, !noalias !6
  %cmp.i.i.i = icmp eq ptr %2, null
  br i1 %cmp.i.i.i, label %_ZNK3sat8aig_cuts18filter_valid_nodesEv.exit, label %_ZNK6vectorI7svectorIN3sat8aig_cuts4nodeEjELb1EjE3endEv.exit.i

_ZNK6vectorI7svectorIN3sat8aig_cuts4nodeEjELb1EjE3endEv.exit.i: ; preds = %if.end
  %arrayidx.i.i.i = getelementptr inbounds i8, ptr %2, i64 -4
  %3 = load i32, ptr %arrayidx.i.i.i, align 4, !noalias !6
  %4 = zext i32 %3 to i64
  %add.ptr.i.i = getelementptr inbounds %class.svector.8, ptr %2, i64 %4
  %cmp.not8.i = icmp eq i32 %3, 0
  br i1 %cmp.not8.i, label %_ZNK3sat8aig_cuts18filter_valid_nodesEv.exit, label %for.body.i

for.body.i:                                       ; preds = %_ZNK6vectorI7svectorIN3sat8aig_cuts4nodeEjELb1EjE3endEv.exit.i, %if.end.i
  %__begin1.010.i = phi ptr [ %incdec.ptr.i, %if.end.i ], [ %2, %_ZNK6vectorI7svectorIN3sat8aig_cuts4nodeEjELb1EjE3endEv.exit.i ]
  %id.09.i = phi i32 [ %inc.i, %if.end.i ], [ 0, %_ZNK6vectorI7svectorIN3sat8aig_cuts4nodeEjELb1EjE3endEv.exit.i ]
  %5 = load ptr, ptr %__begin1.010.i, align 8
  %cmp.i.i = icmp eq ptr %5, null
  br i1 %cmp.i.i, label %if.end.i, label %_ZNK6vectorIN3sat8aig_cuts4nodeELb0EjE5emptyEv.exit.i

_ZNK6vectorIN3sat8aig_cuts4nodeELb0EjE5emptyEv.exit.i: ; preds = %for.body.i
  %arrayidx.i.i = getelementptr inbounds i8, ptr %5, i64 -4
  %6 = load i32, ptr %arrayidx.i.i, align 4
  %cmp3.i.i = icmp eq i32 %6, 0
  br i1 %cmp3.i.i, label %if.end.i, label %if.then.i

if.then.i:                                        ; preds = %_ZNK6vectorIN3sat8aig_cuts4nodeELb0EjE5emptyEv.exit.i
  %7 = load ptr, ptr %node_ids, align 8, !alias.scope !6
  %cmp.i4.i = icmp eq ptr %7, null
  br i1 %cmp.i4.i, label %if.then.i.i, label %lor.lhs.false.i.i

lor.lhs.false.i.i:                                ; preds = %if.then.i
  %arrayidx.i5.i = getelementptr inbounds i8, ptr %7, i64 -4
  %8 = load i32, ptr %arrayidx.i5.i, align 4
  %arrayidx4.i.i = getelementptr inbounds i8, ptr %7, i64 -8
  %9 = load i32, ptr %arrayidx4.i.i, align 4
  %cmp5.i.i = icmp eq i32 %8, %9
  br i1 %cmp5.i.i, label %if.then.i.i, label %_ZN6vectorIjLb0EjE9push_backERKj.exit.i

if.then.i.i:                                      ; preds = %lor.lhs.false.i.i, %if.then.i
  invoke void @_ZN6vectorIjLb0EjE13expand_vectorEv(ptr noundef nonnull align 8 dereferenceable(8) %node_ids)
          to label %.noexc.i unwind label %lpad.i

.noexc.i:                                         ; preds = %if.then.i.i
  %.pre.i.i = load ptr, ptr %node_ids, align 8, !alias.scope !6
  %arrayidx8.phi.trans.insert.i.i = getelementptr inbounds i8, ptr %.pre.i.i, i64 -4
  %.pre1.i.i = load i32, ptr %arrayidx8.phi.trans.insert.i.i, align 4
  br label %_ZN6vectorIjLb0EjE9push_backERKj.exit.i

_ZN6vectorIjLb0EjE9push_backERKj.exit.i:          ; preds = %.noexc.i, %lor.lhs.false.i.i
  %10 = phi i32 [ %.pre1.i.i, %.noexc.i ], [ %8, %lor.lhs.false.i.i ]
  %11 = phi ptr [ %.pre.i.i, %.noexc.i ], [ %7, %lor.lhs.false.i.i ]
  %idx.ext.i.i = zext i32 %10 to i64
  %add.ptr.i6.i = getelementptr inbounds i32, ptr %11, i64 %idx.ext.i.i
  store i32 %id.09.i, ptr %add.ptr.i6.i, align 4
  %12 = load ptr, ptr %node_ids, align 8, !alias.scope !6
  %arrayidx10.i.i = getelementptr inbounds i8, ptr %12, i64 -4
  %13 = load i32, ptr %arrayidx10.i.i, align 4
  %inc.i.i = add i32 %13, 1
  store i32 %inc.i.i, ptr %arrayidx10.i.i, align 4
  br label %if.end.i

common.resume:                                    ; preds = %lpad, %lpad.i
  %common.resume.op = phi { ptr, i32 } [ %14, %lpad.i ], [ %19, %lpad ]
  call void @_ZN7svectorIjjED2Ev(ptr noundef nonnull align 8 dereferenceable(8) %node_ids) #18
  resume { ptr, i32 } %common.resume.op

lpad.i:                                           ; preds = %if.then.i.i
  %14 = landingpad { ptr, i32 }
          cleanup
  br label %common.resume

if.end.i:                                         ; preds = %_ZN6vectorIjLb0EjE9push_backERKj.exit.i, %_ZNK6vectorIN3sat8aig_cuts4nodeELb0EjE5emptyEv.exit.i, %for.body.i
  %inc.i = add nuw i32 %id.09.i, 1
  %incdec.ptr.i = getelementptr inbounds i8, ptr %__begin1.010.i, i64 8
  %cmp.not.i = icmp eq ptr %incdec.ptr.i, %add.ptr.i.i
  br i1 %cmp.not.i, label %_ZNK3sat8aig_cuts18filter_valid_nodesEv.exit, label %for.body.i

_ZNK3sat8aig_cuts18filter_valid_nodesEv.exit:     ; preds = %if.end.i, %if.end, %_ZNK6vectorI7svectorIN3sat8aig_cuts4nodeEjELb1EjE3endEv.exit.i
  invoke void @_ZN3sat8aig_cuts7augmentERK7svectorIjjE(ptr noundef nonnull align 8 dereferenceable(480) %this, ptr noundef nonnull align 8 dereferenceable(8) %node_ids)
          to label %invoke.cont unwind label %lpad

invoke.cont:                                      ; preds = %_ZNK3sat8aig_cuts18filter_valid_nodesEv.exit
  %m_num_cut_calls = getelementptr inbounds i8, ptr %this, i64 200
  %15 = load i32, ptr %m_num_cut_calls, align 8
  %inc = add i32 %15, 1
  store i32 %inc, ptr %m_num_cut_calls, align 8
  %16 = load ptr, ptr %node_ids, align 8
  %tobool.not.i.i.i = icmp eq ptr %16, null
  br i1 %tobool.not.i.i.i, label %_ZN7svectorIjjED2Ev.exit, label %if.then.i.i.i

if.then.i.i.i:                                    ; preds = %invoke.cont
  %add.ptr.i.i.i.i = getelementptr inbounds i8, ptr %16, i64 -8
  invoke void @_ZN6memory10deallocateEPv(ptr noundef nonnull %add.ptr.i.i.i.i)
          to label %_ZN7svectorIjjED2Ev.exit unwind label %terminate.lpad.i.i

terminate.lpad.i.i:                               ; preds = %if.then.i.i.i
  %17 = landingpad { ptr, i32 }
          catch ptr null
  %18 = extractvalue { ptr, i32 } %17, 0
  call void @__clang_call_terminate(ptr %18) #19
  unreachable

_ZN7svectorIjjED2Ev.exit:                         ; preds = %invoke.cont, %if.then.i.i.i
  %m_cuts = getelementptr inbounds i8, ptr %this, i64 176
  ret ptr %m_cuts

lpad:                                             ; preds = %_ZNK3sat8aig_cuts18filter_valid_nodesEv.exit
  %19 = landingpad { ptr, i32 }
          cleanup
  br label %common.resume
}